; Function Attrs: mustprogress uwtable
define hidden noundef zeroext i1 @_ZN1q6solver10is_literalEP4expr(ptr nocapture noundef nonnull readonly align 8 dereferenceable(3144) %this, ptr nocapture noundef readonly %arg) local_unnamed_addr #3 align 2 {
entry:
  %m = getelementptr inbounds i8, ptr %this, i64 72
  %m_kind.i.i.i.i = getelementptr inbounds i8, ptr %arg, i64 4
  %bf.load.i.i.i.i = load i32, ptr %m_kind.i.i.i.i, align 4
  %bf.clear.i.i.i.i = and i32 %bf.load.i.i.i.i, 65535
  %cmp.i.i.i = icmp eq i32 %bf.clear.i.i.i.i, 0
  br i1 %cmp.i.i.i, label %land.rhs.i.i.i, label %_ZNK11ast_manager6is_notEPK4exprRPS0_.exit

land.rhs.i.i.i:                                   ; preds = %entry
  %m_decl.i.i.i.i = getelementptr inbounds i8, ptr %arg, i64 16
  %0 = load ptr, ptr %m_decl.i.i.i.i, align 8
  %m_info.i.i.i.i.i = getelementptr inbounds i8, ptr %0, i64 24
  %1 = load ptr, ptr %m_info.i.i.i.i.i, align 8
  %tobool.not.i.i.i.i.i = icmp eq ptr %1, null
  br i1 %tobool.not.i.i.i.i.i, label %_ZNK11ast_manager6is_notEPK4exprRPS0_.exit, label %_ZNK11ast_manager6is_notEPK4expr.exit.i

_ZNK11ast_manager6is_notEPK4expr.exit.i:          ; preds = %land.rhs.i.i.i
  %2 = load i32, ptr %1, align 8
  %cmp.i.i.i.i.i.i = icmp eq i32 %2, 0
  %m_kind.i.i.i.i.i.i = getelementptr inbounds i8, ptr %1, i64 4
  %3 = load i32, ptr %m_kind.i.i.i.i.i.i, align 4
  %cmp2.i.i.i.i.i.i = icmp eq i32 %3, 8
  %4 = select i1 %cmp.i.i.i.i.i.i, i1 %cmp2.i.i.i.i.i.i, i1 false
  br i1 %4, label %land.lhs.true.i, label %_ZNK11ast_manager6is_notEPK4exprRPS0_.exit

land.lhs.true.i:                                  ; preds = %_ZNK11ast_manager6is_notEPK4expr.exit.i
  %m_num_args.i.i = getelementptr inbounds i8, ptr %arg, i64 24
  %5 = load i32, ptr %m_num_args.i.i, align 8
  %cmp.i = icmp eq i32 %5, 1
  br i1 %cmp.i, label %if.then.i, label %_ZNK11ast_manager6is_notEPK4exprRPS0_.exit

if.then.i:                                        ; preds = %land.lhs.true.i
  %m_args.i.i = getelementptr inbounds i8, ptr %arg, i64 32
  %6 = load ptr, ptr %m_args.i.i, align 8
  %m_kind.i.i.i.phi.trans.insert = getelementptr inbounds i8, ptr %6, i64 4
  %bf.load.i.i.i.pre = load i32, ptr %m_kind.i.i.i.phi.trans.insert, align 4
  br label %_ZNK11ast_manager6is_notEPK4exprRPS0_.exit

_ZNK11ast_manager6is_notEPK4exprRPS0_.exit:       ; preds = %entry, %land.rhs.i.i.i, %_ZNK11ast_manager6is_notEPK4expr.exit.i, %land.lhs.true.i, %if.then.i
  %bf.load.i.i.i = phi i32 [ %bf.load.i.i.i.i, %land.rhs.i.i.i ], [ %bf.load.i.i.i.pre, %if.then.i ], [ %bf.load.i.i.i.i, %land.lhs.true.i ], [ %bf.load.i.i.i.i, %_ZNK11ast_manager6is_notEPK4expr.exit.i ], [ %bf.load.i.i.i.i, %entry ]
  %arg.addr.0 = phi ptr [ %arg, %land.rhs.i.i.i ], [ %6, %if.then.i ], [ %arg, %land.lhs.true.i ], [ %arg, %_ZNK11ast_manager6is_notEPK4expr.exit.i ], [ %arg, %entry ]
  %m_kind.i.i.i = getelementptr inbounds i8, ptr %arg.addr.0, i64 4
  %bf.clear.i.i.i = and i32 %bf.load.i.i.i, 65535
  %cmp.i.i = icmp eq i32 %bf.clear.i.i.i, 0
  br i1 %cmp.i.i, label %land.rhs.i.i, label %land.rhs

land.rhs.i.i:                                     ; preds = %_ZNK11ast_manager6is_notEPK4exprRPS0_.exit
  %m_decl.i.i.i = getelementptr inbounds i8, ptr %arg.addr.0, i64 16
  %7 = load ptr, ptr %m_decl.i.i.i, align 8
  %m_info.i.i.i.i = getelementptr inbounds i8, ptr %7, i64 24
  %8 = load ptr, ptr %m_info.i.i.i.i, align 8
  %tobool.not.i.i.i.i = icmp eq ptr %8, null
  br i1 %tobool.not.i.i.i.i, label %land.rhs, label %_ZNK11ast_manager6is_andEPK4expr.exit

_ZNK11ast_manager6is_andEPK4expr.exit:            ; preds = %land.rhs.i.i
  %9 = load i32, ptr %8, align 8
  %cmp.i.i.i.i.i = icmp eq i32 %9, 0
  %m_kind.i.i.i.i.i = getelementptr inbounds i8, ptr %8, i64 4
  %10 = load i32, ptr %m_kind.i.i.i.i.i, align 4
  %cmp2.i.i.i.i.i = icmp eq i32 %10, 5
  %11 = select i1 %cmp.i.i.i.i.i, i1 %cmp2.i.i.i.i.i, i1 false
  br i1 %11, label %land.end, label %_ZNK11ast_manager5is_orEPK4expr.exit

_ZNK11ast_manager5is_orEPK4expr.exit:             ; preds = %_ZNK11ast_manager6is_andEPK4expr.exit
  %12 = load i32, ptr %8, align 8
  %cmp.i.i.i.i.i10 = icmp eq i32 %12, 0
  %m_kind.i.i.i.i.i11 = getelementptr inbounds i8, ptr %8, i64 4
  %13 = load i32, ptr %m_kind.i.i.i.i.i11, align 4
  %cmp2.i.i.i.i.i12 = icmp eq i32 %13, 6
  %14 = select i1 %cmp.i.i.i.i.i10, i1 %cmp2.i.i.i.i.i12, i1 false
  br i1 %14, label %land.end, label %_ZNK11ast_manager5is_eqEPK4expr.exit.i

_ZNK11ast_manager5is_eqEPK4expr.exit.i:           ; preds = %_ZNK11ast_manager5is_orEPK4expr.exit
  %15 = load i32, ptr %8, align 8
  %cmp.i.i.i.i.i.i21 = icmp eq i32 %15, 0
  %m_kind.i.i.i.i.i.i22 = getelementptr inbounds i8, ptr %8, i64 4
  %16 = load i32, ptr %m_kind.i.i.i.i.i.i22, align 4
  %cmp2.i.i.i.i.i.i23 = icmp eq i32 %16, 2
  %17 = select i1 %cmp.i.i.i.i.i.i21, i1 %cmp2.i.i.i.i.i.i23, i1 false
  br i1 %17, label %_ZNK11ast_manager6is_iffEPK4expr.exit, label %land.rhs

_ZNK11ast_manager6is_iffEPK4expr.exit:            ; preds = %_ZNK11ast_manager5is_eqEPK4expr.exit.i
  %18 = load ptr, ptr %m, align 8
  %m_args.i.i24 = getelementptr inbounds i8, ptr %arg.addr.0, i64 32
  %19 = load ptr, ptr %m_args.i.i24, align 8
  %call4.i = tail call noundef zeroext i1 @_ZNK11ast_manager7is_boolEPK4expr(ptr noundef nonnull align 8 dereferenceable(976) %18, ptr noundef %19)
  br i1 %call4.i, label %land.end, label %_ZNK11ast_manager6is_iffEPK4expr.exit.land.rhs_crit_edge

_ZNK11ast_manager6is_iffEPK4expr.exit.land.rhs_crit_edge: ; preds = %_ZNK11ast_manager6is_iffEPK4expr.exit
  %bf.load.i.i.i26.pre = load i32, ptr %m_kind.i.i.i, align 4
  br label %land.rhs

land.rhs:                                         ; preds = %land.rhs.i.i, %_ZNK11ast_manager6is_iffEPK4expr.exit.land.rhs_crit_edge, %_ZNK11ast_manager6is_notEPK4exprRPS0_.exit, %_ZNK11ast_manager5is_eqEPK4expr.exit.i
  %bf.load.i.i.i26 = phi i32 [ %bf.load.i.i.i26.pre, %_ZNK11ast_manager6is_iffEPK4expr.exit.land.rhs_crit_edge ], [ %bf.load.i.i.i, %_ZNK11ast_manager6is_notEPK4exprRPS0_.exit ], [ %bf.load.i.i.i, %_ZNK11ast_manager5is_eqEPK4expr.exit.i ], [ %bf.load.i.i.i, %land.rhs.i.i ]
  %bf.clear.i.i.i27 = and i32 %bf.load.i.i.i26, 65535
  %cmp.i.i28 = icmp eq i32 %bf.clear.i.i.i27, 0
  br i1 %cmp.i.i28, label %land.rhs.i.i29, label %land.end

land.rhs.i.i29:                                   ; preds = %land.rhs
  %m_decl.i.i.i30 = getelementptr inbounds i8, ptr %arg.addr.0, i64 16
  %20 = load ptr, ptr %m_decl.i.i.i30, align 8
  %m_info.i.i.i.i31 = getelementptr inbounds i8, ptr %20, i64 24
  %21 = load ptr, ptr %m_info.i.i.i.i31, align 8
  %tobool.not.i.i.i.i32 = icmp eq ptr %21, null
  br i1 %tobool.not.i.i.i.i32, label %land.end, label %land.rhs.i.i.i.i33

land.rhs.i.i.i.i33:                               ; preds = %land.rhs.i.i29
  %22 = load i32, ptr %21, align 8
  %cmp.i.i.i.i.i34 = icmp ne i32 %22, 0
  %m_kind.i.i.i.i.i35 = getelementptr inbounds i8, ptr %21, i64 4
  %23 = load i32, ptr %m_kind.i.i.i.i.i35, align 4
  %cmp2.i.i.i.i.i36 = icmp ne i32 %23, 9
  %.not = select i1 %cmp.i.i.i.i.i34, i1 true, i1 %cmp2.i.i.i.i.i36
  br label %land.end

land.end:                                         ; preds = %land.rhs.i.i.i.i33, %land.rhs.i.i29, %land.rhs, %_ZNK11ast_manager6is_iffEPK4expr.exit, %_ZNK11ast_manager5is_orEPK4expr.exit, %_ZNK11ast_manager6is_andEPK4expr.exit
  %24 = phi i1 [ false, %_ZNK11ast_manager6is_iffEPK4expr.exit ], [ false, %_ZNK11ast_manager5is_orEPK4expr.exit ], [ false, %_ZNK11ast_manager6is_andEPK4expr.exit ], [ true, %land.rhs ], [ true, %land.rhs.i.i29 ], [ %.not, %land.rhs.i.i.i.i33 ]
  ret i1 %24
}